target datalayout = "e-m:e-p270:32:32-p271:32:32-p272:64:64-i64:64-i128:128-f80:128-n8:16:32:64-S128"
target triple = "x86_64-pc-linux-gnu"

%struct.darktable_t = type { %struct.dt_codepath_t, i32, i32, ptr, ptr, ptr, ptr, ptr, ptr, ptr, ptr, ptr, ptr, ptr, ptr, ptr, ptr, ptr, ptr, ptr, ptr, ptr, ptr, ptr, ptr, ptr, ptr, ptr, ptr, ptr, [64 x %struct.dt_pthread_mutex_t], %struct.dt_pthread_mutex_t, %struct.dt_pthread_mutex_t, %struct.dt_pthread_mutex_t, %struct.dt_pthread_mutex_t, %struct.dt_pthread_mutex_t, ptr, ptr, ptr, ptr, ptr, ptr, ptr, ptr, ptr, ptr, ptr, ptr, ptr, %struct.dt_lua_state_t, ptr, double, ptr, i32, [47 x i32], i32, i32, ptr, ptr, %struct.dt_sys_resources_t, %struct.dt_backthumb_t, %struct.dt_gimp_t }
%struct.dt_codepath_t = type { i8, [3 x i8] }
%struct.dt_pthread_mutex_t = type { %union.pthread_mutex_t }
%union.pthread_mutex_t = type { %struct.__pthread_mutex_s }
%struct.__pthread_mutex_s = type { i32, i32, i32, i32, i32, i16, i16, %struct.__pthread_internal_list }
%struct.__pthread_internal_list = type { ptr, ptr }
%struct.dt_lua_state_t = type { i32 }
%struct.dt_sys_resources_t = type { i64, i64, ptr, ptr, i32 }
%struct.dt_backthumb_t = type { double, double, i32, i32, i32, i32 }
%struct.dt_gimp_t = type { i32, ptr, ptr, i32, i32 }
%struct.dt_camctl_t = type { %struct.dt_pthread_mutex_t, %struct.dt_pthread_mutex_t, i64, ptr, ptr, ptr, ptr, ptr, ptr, ptr, ptr, i32, i32, i32 }
%struct.dt_camera_t = type { ptr, ptr, %struct.CameraText, ptr, ptr, %struct.dt_pthread_mutex_t, i32, i32, i32, i32, i32, i32, i32, i32, i32, ptr, %struct.dt_pthread_mutex_t, ptr, %struct.anon, ptr, ptr, i32, i32, i32, i32, ptr, i32, i32, i32, i32, i32, i32, i32, i32, i64, %struct.dt_pthread_mutex_t, %struct.dt_pthread_mutex_t }
%struct.CameraText = type { [32768 x i8] }
%struct.anon = type { ptr, i32 }
%struct._GList = type { ptr, ptr, ptr }
%struct.dt_camctl_listener_t = type { ptr, ptr, ptr, ptr, ptr, ptr, ptr, ptr, ptr, ptr, ptr }

@darktable = external global %struct.darktable_t, align 8
@.str.43 = private unnamed_addr constant [35 x i8] c"[camera_control] gphoto2 error: %s\00", align 1
@.str.44 = private unnamed_addr constant [4 x i8] c"PTP\00", align 1
@.str.45 = private unnamed_addr constant [57 x i8] c"[camera_control] PTP error `%s' for camera %s on port %s\00", align 1
@.str.46 = private unnamed_addr constant [100 x i8] c"camera `%s' on port `%s' error %s\0A\0Amake sure your camera allows access and is not mounted otherwise\00", align 1

; Function Attrs: inlinehint nounwind uwtable
define internal i32 @dt_pthread_mutex_unlock(ptr noundef %0) #4 {
  %2 = alloca ptr, align 8
  store ptr %0, ptr %2, align 8, !tbaa !91
  %3 = load ptr, ptr %2, align 8, !tbaa !91
  %4 = getelementptr inbounds nuw %struct.dt_pthread_mutex_t, ptr %3, i32 0, i32 0
  %5 = call i32 @pthread_mutex_unlock(ptr noundef %4) #10
  ret i32 %5
}

; Function Attrs: inlinehint nounwind uwtable
define internal i32 @dt_pthread_mutex_lock(ptr noundef %0) #4 {
  %2 = alloca ptr, align 8
  store ptr %0, ptr %2, align 8, !tbaa !91
  %3 = load ptr, ptr %2, align 8, !tbaa !91
  %4 = getelementptr inbounds nuw %struct.dt_pthread_mutex_t, ptr %3, i32 0, i32 0
  %5 = call i32 @pthread_mutex_lock(ptr noundef %4) #10
  ret i32 %5
}

; Function Attrs: nounwind uwtable
define internal void @_dispatch_camera_disconnected(ptr noundef %0, ptr noundef %1) #0 {
  %3 = alloca ptr, align 8
  %4 = alloca ptr, align 8
  %5 = alloca ptr, align 8
  %6 = alloca ptr, align 8
  %7 = alloca ptr, align 8
  store ptr %0, ptr %3, align 8, !tbaa !6
  store ptr %1, ptr %4, align 8, !tbaa !21
  call void @llvm.lifetime.start.p0(i64 8, ptr %5) #10
  %8 = load ptr, ptr %3, align 8, !tbaa !6
  store ptr %8, ptr %5, align 8, !tbaa !6
  %9 = load ptr, ptr %5, align 8, !tbaa !6
  %10 = getelementptr inbounds nuw %struct.dt_camctl_t, ptr %9, i32 0, i32 1
  %11 = call i32 @dt_pthread_mutex_lock(ptr noundef %10)
  call void @llvm.lifetime.start.p0(i64 8, ptr %6) #10
  %12 = load ptr, ptr %5, align 8, !tbaa !6
  %13 = getelementptr inbounds nuw %struct.dt_camctl_t, ptr %12, i32 0, i32 3
  %14 = load ptr, ptr %13, align 8, !tbaa !106
  store ptr %14, ptr %6, align 8, !tbaa !85
  br label %15

15:                                               ; preds = %44, %2
  %16 = load ptr, ptr %6, align 8, !tbaa !85
  %17 = icmp ne ptr %16, null
  br i1 %17, label %19, label %18

18:                                               ; preds = %15
  call void @llvm.lifetime.end.p0(i64 8, ptr %6) #10
  br label %46

19:                                               ; preds = %15
  call void @llvm.lifetime.start.p0(i64 8, ptr %7) #10
  %20 = load ptr, ptr %6, align 8, !tbaa !85
  %21 = getelementptr inbounds nuw %struct._GList, ptr %20, i32 0, i32 0
  %22 = load ptr, ptr %21, align 8, !tbaa !86
  store ptr %22, ptr %7, align 8, !tbaa !104
  %23 = load ptr, ptr %7, align 8, !tbaa !104
  %24 = getelementptr inbounds nuw %struct.dt_camctl_listener_t, ptr %23, i32 0, i32 9
  %25 = load ptr, ptr %24, align 8, !tbaa !190
  %26 = icmp ne ptr %25, null
  br i1 %26, label %27, label %35

27:                                               ; preds = %19
  %28 = load ptr, ptr %7, align 8, !tbaa !104
  %29 = getelementptr inbounds nuw %struct.dt_camctl_listener_t, ptr %28, i32 0, i32 9
  %30 = load ptr, ptr %29, align 8, !tbaa !190
  %31 = load ptr, ptr %4, align 8, !tbaa !21
  %32 = load ptr, ptr %7, align 8, !tbaa !104
  %33 = getelementptr inbounds nuw %struct.dt_camctl_listener_t, ptr %32, i32 0, i32 0
  %34 = load ptr, ptr %33, align 8, !tbaa !128
  call void %30(ptr noundef %31, ptr noundef %34)
  br label %35

35:                                               ; preds = %27, %19
  call void @llvm.lifetime.end.p0(i64 8, ptr %7) #10
  br label %36

36:                                               ; preds = %35
  %37 = load ptr, ptr %6, align 8, !tbaa !85
  %38 = icmp ne ptr %37, null
  br i1 %38, label %39, label %43

39:                                               ; preds = %36
  %40 = load ptr, ptr %6, align 8, !tbaa !85
  %41 = getelementptr inbounds nuw %struct._GList, ptr %40, i32 0, i32 1
  %42 = load ptr, ptr %41, align 8, !tbaa !117
  br label %44

43:                                               ; preds = %36
  br label %44

44:                                               ; preds = %43, %39
  %45 = phi ptr [ %42, %39 ], [ null, %43 ]
  store ptr %45, ptr %6, align 8, !tbaa !85
  br label %15

46:                                               ; preds = %18
  %47 = load ptr, ptr %5, align 8, !tbaa !6
  %48 = getelementptr inbounds nuw %struct.dt_camctl_t, ptr %47, i32 0, i32 1
  %49 = call i32 @dt_pthread_mutex_unlock(ptr noundef %48)
  call void @llvm.lifetime.end.p0(i64 8, ptr %5) #10
  ret void
}

; Function Attrs: nounwind uwtable
define internal void @_dispatch_camera_error(ptr noundef %0, ptr noundef %1, i32 noundef %2) #0 {
  %4 = alloca ptr, align 8
  %5 = alloca ptr, align 8
  %6 = alloca i32, align 4
  %7 = alloca ptr, align 8
  %8 = alloca ptr, align 8
  %9 = alloca ptr, align 8
  store ptr %0, ptr %4, align 8, !tbaa !6
  store ptr %1, ptr %5, align 8, !tbaa !21
  store i32 %2, ptr %6, align 4, !tbaa !64
  call void @llvm.lifetime.start.p0(i64 8, ptr %7) #10
  %10 = load ptr, ptr %4, align 8, !tbaa !6
  store ptr %10, ptr %7, align 8, !tbaa !6
  %11 = load ptr, ptr %7, align 8, !tbaa !6
  %12 = getelementptr inbounds nuw %struct.dt_camctl_t, ptr %11, i32 0, i32 1
  %13 = call i32 @dt_pthread_mutex_lock(ptr noundef %12)
  call void @llvm.lifetime.start.p0(i64 8, ptr %8) #10
  %14 = load ptr, ptr %7, align 8, !tbaa !6
  %15 = getelementptr inbounds nuw %struct.dt_camctl_t, ptr %14, i32 0, i32 3
  %16 = load ptr, ptr %15, align 8, !tbaa !106
  store ptr %16, ptr %8, align 8, !tbaa !85
  br label %17

17:                                               ; preds = %47, %3
  %18 = load ptr, ptr %8, align 8, !tbaa !85
  %19 = icmp ne ptr %18, null
  br i1 %19, label %21, label %20

20:                                               ; preds = %17
  call void @llvm.lifetime.end.p0(i64 8, ptr %8) #10
  br label %49

21:                                               ; preds = %17
  call void @llvm.lifetime.start.p0(i64 8, ptr %9) #10
  %22 = load ptr, ptr %8, align 8, !tbaa !85
  %23 = getelementptr inbounds nuw %struct._GList, ptr %22, i32 0, i32 0
  %24 = load ptr, ptr %23, align 8, !tbaa !86
  store ptr %24, ptr %9, align 8, !tbaa !104
  %25 = load ptr, ptr %9, align 8, !tbaa !104
  %26 = getelementptr inbounds nuw %struct.dt_camctl_listener_t, ptr %25, i32 0, i32 10
  %27 = load ptr, ptr %26, align 8, !tbaa !189
  %28 = icmp ne ptr %27, null
  br i1 %28, label %29, label %38

29:                                               ; preds = %21
  %30 = load ptr, ptr %9, align 8, !tbaa !104
  %31 = getelementptr inbounds nuw %struct.dt_camctl_listener_t, ptr %30, i32 0, i32 10
  %32 = load ptr, ptr %31, align 8, !tbaa !189
  %33 = load ptr, ptr %5, align 8, !tbaa !21
  %34 = load i32, ptr %6, align 4, !tbaa !64
  %35 = load ptr, ptr %9, align 8, !tbaa !104
  %36 = getelementptr inbounds nuw %struct.dt_camctl_listener_t, ptr %35, i32 0, i32 0
  %37 = load ptr, ptr %36, align 8, !tbaa !128
  call void %32(ptr noundef %33, i32 noundef %34, ptr noundef %37)
  br label %38

38:                                               ; preds = %29, %21
  call void @llvm.lifetime.end.p0(i64 8, ptr %9) #10
  br label %39

39:                                               ; preds = %38
  %40 = load ptr, ptr %8, align 8, !tbaa !85
  %41 = icmp ne ptr %40, null
  br i1 %41, label %42, label %46

42:                                               ; preds = %39
  %43 = load ptr, ptr %8, align 8, !tbaa !85
  %44 = getelementptr inbounds nuw %struct._GList, ptr %43, i32 0, i32 1
  %45 = load ptr, ptr %44, align 8, !tbaa !117
  br label %47

46:                                               ; preds = %39
  br label %47

47:                                               ; preds = %46, %42
  %48 = phi ptr [ %45, %42 ], [ null, %46 ]
  store ptr %48, ptr %8, align 8, !tbaa !85
  br label %17

49:                                               ; preds = %20
  %50 = load ptr, ptr %7, align 8, !tbaa !6
  %51 = getelementptr inbounds nuw %struct.dt_camctl_t, ptr %50, i32 0, i32 1
  %52 = call i32 @dt_pthread_mutex_unlock(ptr noundef %51)
  call void @llvm.lifetime.end.p0(i64 8, ptr %7) #10
  ret void
}

; Function Attrs: nounwind uwtable
define internal void @_error_func_dispatch25(ptr noundef %0, ptr noundef %1, ptr noundef %2) #0 {
  %4 = alloca ptr, align 8
  %5 = alloca ptr, align 8
  %6 = alloca ptr, align 8
  %7 = alloca ptr, align 8
  %8 = alloca ptr, align 8
  %9 = alloca ptr, align 8
  store ptr %0, ptr %4, align 8, !tbaa !83
  store ptr %1, ptr %5, align 8, !tbaa !63
  store ptr %2, ptr %6, align 8, !tbaa !72
  call void @llvm.lifetime.start.p0(i64 8, ptr %7) #10
  %10 = load ptr, ptr %6, align 8, !tbaa !72
  store ptr %10, ptr %7, align 8, !tbaa !6
  br label %11

11:                                               ; preds = %3
  %12 = load i32, ptr getelementptr inbounds nuw (%struct.darktable_t, ptr @darktable, i32 0, i32 2), align 8, !tbaa !22
  %13 = and i32 32, %12
  %14 = icmp ne i32 %13, 0
  br i1 %14, label %15, label %22

15:                                               ; preds = %11
  %16 = load i32, ptr getelementptr inbounds nuw (%struct.darktable_t, ptr @darktable, i32 0, i32 2), align 8, !tbaa !22
  %17 = xor i32 %16, -1
  %18 = and i32 0, %17
  %19 = icmp ne i32 %18, 0
  br i1 %19, label %22, label %20

20:                                               ; preds = %15
  %21 = load ptr, ptr %5, align 8, !tbaa !63
  call void (ptr, ...) @dt_print_ext(ptr noundef @.str.43, ptr noundef %21)
  br label %22

22:                                               ; preds = %20, %15, %11
  br label %23

23:                                               ; preds = %22
  br label %24

24:                                               ; preds = %23
  %25 = load ptr, ptr %5, align 8, !tbaa !63
  %26 = call ptr @strstr(ptr noundef %25, ptr noundef @.str.44) #12
  %27 = icmp ne ptr %26, null
  br i1 %27, label %28, label %81

28:                                               ; preds = %24
  call void @llvm.lifetime.start.p0(i64 8, ptr %8) #10
  %29 = load ptr, ptr %7, align 8, !tbaa !6
  %30 = getelementptr inbounds nuw %struct.dt_camctl_t, ptr %29, i32 0, i32 4
  %31 = load ptr, ptr %30, align 8, !tbaa !84
  %32 = load ptr, ptr %7, align 8, !tbaa !6
  %33 = getelementptr inbounds nuw %struct.dt_camctl_t, ptr %32, i32 0, i32 10
  %34 = load ptr, ptr %33, align 8, !tbaa !11
  %35 = call ptr @g_list_find(ptr noundef %31, ptr noundef %34)
  store ptr %35, ptr %8, align 8, !tbaa !85
  %36 = load ptr, ptr %8, align 8, !tbaa !85
  %37 = icmp ne ptr %36, null
  br i1 %37, label %38, label %72

38:                                               ; preds = %28
  call void @llvm.lifetime.start.p0(i64 8, ptr %9) #10
  %39 = load ptr, ptr %8, align 8, !tbaa !85
  %40 = getelementptr inbounds nuw %struct._GList, ptr %39, i32 0, i32 0
  %41 = load ptr, ptr %40, align 8, !tbaa !86
  store ptr %41, ptr %9, align 8, !tbaa !21
  br label %42

42:                                               ; preds = %38
  %43 = load i32, ptr getelementptr inbounds nuw (%struct.darktable_t, ptr @darktable, i32 0, i32 2), align 8, !tbaa !22
  %44 = and i32 32, %43
  %45 = icmp ne i32 %44, 0
  br i1 %45, label %46, label %59

46:                                               ; preds = %42
  %47 = load i32, ptr getelementptr inbounds nuw (%struct.darktable_t, ptr @darktable, i32 0, i32 2), align 8, !tbaa !22
  %48 = xor i32 %47, -1
  %49 = and i32 0, %48
  %50 = icmp ne i32 %49, 0
  br i1 %50, label %59, label %51

51:                                               ; preds = %46
  %52 = load ptr, ptr %5, align 8, !tbaa !63
  %53 = load ptr, ptr %9, align 8, !tbaa !21
  %54 = getelementptr inbounds nuw %struct.dt_camera_t, ptr %53, i32 0, i32 0
  %55 = load ptr, ptr %54, align 8, !tbaa !88
  %56 = load ptr, ptr %9, align 8, !tbaa !21
  %57 = getelementptr inbounds nuw %struct.dt_camera_t, ptr %56, i32 0, i32 1
  %58 = load ptr, ptr %57, align 8, !tbaa !89
  call void (ptr, ...) @dt_print_ext(ptr noundef @.str.45, ptr noundef %52, ptr noundef %55, ptr noundef %58)
  br label %59

59:                                               ; preds = %51, %46, %42
  br label %60

60:                                               ; preds = %59
  br label %61

61:                                               ; preds = %60
  %62 = call ptr @dcgettext(ptr noundef null, ptr noundef @.str.46, i32 noundef 5) #10
  %63 = load ptr, ptr %9, align 8, !tbaa !21
  %64 = getelementptr inbounds nuw %struct.dt_camera_t, ptr %63, i32 0, i32 0
  %65 = load ptr, ptr %64, align 8, !tbaa !88
  %66 = load ptr, ptr %9, align 8, !tbaa !21
  %67 = getelementptr inbounds nuw %struct.dt_camera_t, ptr %66, i32 0, i32 1
  %68 = load ptr, ptr %67, align 8, !tbaa !89
  %69 = load ptr, ptr %5, align 8, !tbaa !63
  call void (ptr, ...) @dt_control_log(ptr noundef %62, ptr noundef %65, ptr noundef %68, ptr noundef %69)
  %70 = load ptr, ptr %9, align 8, !tbaa !21
  %71 = getelementptr inbounds nuw %struct.dt_camera_t, ptr %70, i32 0, i32 22
  store i32 1, ptr %71, align 4, !tbaa !90
  call void @llvm.lifetime.end.p0(i64 8, ptr %9) #10
  br label %72

72:                                               ; preds = %61, %28
  %73 = load ptr, ptr %7, align 8, !tbaa !6
  %74 = load ptr, ptr %7, align 8, !tbaa !6
  %75 = getelementptr inbounds nuw %struct.dt_camctl_t, ptr %74, i32 0, i32 10
  %76 = load ptr, ptr %75, align 8, !tbaa !11
  call void @_dispatch_camera_error(ptr noundef %73, ptr noundef %76, i32 noundef 1)
  %77 = load ptr, ptr %7, align 8, !tbaa !6
  %78 = load ptr, ptr %7, align 8, !tbaa !6
  %79 = getelementptr inbounds nuw %struct.dt_camctl_t, ptr %78, i32 0, i32 10
  %80 = load ptr, ptr %79, align 8, !tbaa !11
  call void @_dispatch_camera_disconnected(ptr noundef %77, ptr noundef %80)
  call void @llvm.lifetime.end.p0(i64 8, ptr %8) #10
  br label %81

81:                                               ; preds = %72, %24
  call void @llvm.lifetime.end.p0(i64 8, ptr %7) #10
  ret void
}