; Function Attrs: nounwind uwtable
define internal void @_error_func_dispatch25(ptr readnone captures(none) %0, ptr noundef %1, ptr noundef %2) #0 {
  %4 = load i32, ptr getelementptr inbounds nuw (i8, ptr @darktable, i64 8), align 8, !tbaa !19
  %5 = and i32 %4, 32
  %.not = icmp eq i32 %5, 0
  br i1 %.not, label %7, label %6

6:                                                ; preds = %3
  tail call void (ptr, ...) @dt_print_ext(ptr noundef nonnull @.str.43, ptr noundef %1) #15
  br label %7

7:                                                ; preds = %6, %3
  %8 = tail call ptr @strstr(ptr noundef nonnull dereferenceable(1) %1, ptr noundef nonnull dereferenceable(1) @.str.44) #17
  %.not18 = icmp eq ptr %8, null
  br i1 %.not18, label %52, label %9

9:                                                ; preds = %7
  %10 = getelementptr inbounds nuw i8, ptr %2, i64 96
  %11 = load ptr, ptr %10, align 8, !tbaa !77
  %12 = getelementptr inbounds nuw i8, ptr %2, i64 144
  %13 = load ptr, ptr %12, align 8, !tbaa !6
  %14 = tail call ptr @g_list_find(ptr noundef %11, ptr noundef %13) #15
  %.not19 = icmp eq ptr %14, null
  br i1 %.not19, label %29, label %15

15:                                               ; preds = %9
  %16 = load ptr, ptr %14, align 8, !tbaa !78
  %17 = load i32, ptr getelementptr inbounds nuw (i8, ptr @darktable, i64 8), align 8, !tbaa !19
  %18 = and i32 %17, 32
  %.not20 = icmp eq i32 %18, 0
  br i1 %.not20, label %23, label %19

19:                                               ; preds = %15
  %20 = load ptr, ptr %16, align 8, !tbaa !80
  %21 = getelementptr inbounds nuw i8, ptr %16, i64 8
  %22 = load ptr, ptr %21, align 8, !tbaa !81
  tail call void (ptr, ...) @dt_print_ext(ptr noundef nonnull @.str.45, ptr noundef nonnull %1, ptr noundef %20, ptr noundef %22) #15
  br label %23

23:                                               ; preds = %19, %15
  %24 = tail call ptr @dcgettext(ptr noundef null, ptr noundef nonnull @.str.46, i32 noundef 5) #15
  %25 = load ptr, ptr %16, align 8, !tbaa !80
  %26 = getelementptr inbounds nuw i8, ptr %16, i64 8
  %27 = load ptr, ptr %26, align 8, !tbaa !81
  tail call void (ptr, ...) @dt_control_log(ptr noundef %24, ptr noundef %25, ptr noundef %27, ptr noundef nonnull %1) #15
  %28 = getelementptr inbounds nuw i8, ptr %16, i64 32972
  store i32 1, ptr %28, align 4, !tbaa !82
  br label %29

29:                                               ; preds = %23, %9
  %30 = load ptr, ptr %12, align 8, !tbaa !6
  %31 = getelementptr inbounds nuw i8, ptr %2, i64 40
  %32 = tail call i32 @pthread_mutex_lock(ptr noundef nonnull %31) #15
  %33 = getelementptr inbounds nuw i8, ptr %2, i64 88
  %.014.i = load ptr, ptr %33, align 8, !tbaa !83
  %.not15.i = icmp eq ptr %.014.i, null
  br i1 %.not15.i, label %_dispatch_camera_error.exit, label %.lr.ph.i

.lr.ph.i:                                         ; preds = %29, %39
  %.016.i = phi ptr [ %.0.i, %39 ], [ %.014.i, %29 ]
  %34 = load ptr, ptr %.016.i, align 8, !tbaa !78
  %35 = getelementptr inbounds nuw i8, ptr %34, i64 80
  %36 = load ptr, ptr %35, align 8, !tbaa !84
  %.not13.i = icmp eq ptr %36, null
  br i1 %.not13.i, label %39, label %37

37:                                               ; preds = %.lr.ph.i
  %38 = load ptr, ptr %34, align 8, !tbaa !86
  tail call void %36(ptr noundef %30, i32 noundef 1, ptr noundef %38) #15
  br label %39

39:                                               ; preds = %37, %.lr.ph.i
  %40 = getelementptr inbounds nuw i8, ptr %.016.i, i64 8
  %.0.i = load ptr, ptr %40, align 8, !tbaa !83
  %.not.i = icmp eq ptr %.0.i, null
  br i1 %.not.i, label %_dispatch_camera_error.exit, label %.lr.ph.i

_dispatch_camera_error.exit:                      ; preds = %39, %29
  %41 = tail call i32 @pthread_mutex_unlock(ptr noundef nonnull %31) #15
  %42 = load ptr, ptr %12, align 8, !tbaa !6
  %43 = tail call i32 @pthread_mutex_lock(ptr noundef nonnull %31) #15
  %.014.i21 = load ptr, ptr %33, align 8, !tbaa !83
  %.not15.i22 = icmp eq ptr %.014.i21, null
  br i1 %.not15.i22, label %_dispatch_camera_disconnected.exit, label %.lr.ph.i23

.lr.ph.i23:                                       ; preds = %_dispatch_camera_error.exit, %49
  %.016.i24 = phi ptr [ %.0.i26, %49 ], [ %.014.i21, %_dispatch_camera_error.exit ]
  %44 = load ptr, ptr %.016.i24, align 8, !tbaa !78
  %45 = getelementptr inbounds nuw i8, ptr %44, i64 72
  %46 = load ptr, ptr %45, align 8, !tbaa !87
  %.not13.i25 = icmp eq ptr %46, null
  br i1 %.not13.i25, label %49, label %47

47:                                               ; preds = %.lr.ph.i23
  %48 = load ptr, ptr %44, align 8, !tbaa !86
  tail call void %46(ptr noundef %42, ptr noundef %48) #15
  br label %49

49:                                               ; preds = %47, %.lr.ph.i23
  %50 = getelementptr inbounds nuw i8, ptr %.016.i24, i64 8
  %.0.i26 = load ptr, ptr %50, align 8, !tbaa !83
  %.not.i27 = icmp eq ptr %.0.i26, null
  br i1 %.not.i27, label %_dispatch_camera_disconnected.exit, label %.lr.ph.i23

_dispatch_camera_disconnected.exit:               ; preds = %49, %_dispatch_camera_error.exit
  %51 = tail call i32 @pthread_mutex_unlock(ptr noundef nonnull %31) #15
  br label %52

52:                                               ; preds = %_dispatch_camera_disconnected.exit, %7
  ret void
}